; ModuleID = '37/1049.c'
source_filename = "37/1049.c"
target datalayout = "e-m:e-p270:32:32-p271:32:32-p272:64:64-i64:64-f80:128-n8:16:32:64-S128"
target triple = "x86_64-pc-linux-gnu"

@.str = private unnamed_addr constant [4 x i8] c"%c\0A\00", align 1
@.str.1 = private unnamed_addr constant [4 x i8] c"no\0A\00", align 1
@.str.2 = private unnamed_addr constant [4 x i8] c"%d\0A\00", align 1

; Function Attrs: noinline nounwind uwtable
define dso_local void @fun(i8* %0) #0 {
  %2 = alloca i8*, align 8
  %3 = alloca [26 x i32], align 16
  %4 = alloca i32, align 4
  %5 = alloca i32, align 4
  %6 = alloca i32, align 4
  store i8* %0, i8** %2, align 8
  store i32 0, i32* %4, align 4
  br label %7

7:                                                ; preds = %14, %1
  %8 = load i32, i32* %4, align 4
  %9 = icmp sle i32 %8, 25
  br i1 %9, label %10, label %17

10:                                               ; preds = %7
  %11 = load i32, i32* %4, align 4
  %12 = sext i32 %11 to i64
  %13 = getelementptr inbounds [26 x i32], [26 x i32]* %3, i64 0, i64 %12
  store i32 0, i32* %13, align 4
  br label %14

14:                                               ; preds = %10
  %15 = load i32, i32* %4, align 4
  %16 = add nsw i32 %15, 1
  store i32 %16, i32* %4, align 4
  br label %7

17:                                               ; preds = %7
  %18 = load i8*, i8** %2, align 8
  %19 = call i64 @strlen(i8* %18) #3
  %20 = trunc i64 %19 to i32
  store i32 %20, i32* %5, align 4
  store i32 0, i32* %4, align 4
  br label %21

21:                                               ; preds = %49, %17
  %22 = load i32, i32* %4, align 4
  %23 = load i32, i32* %5, align 4
  %24 = sub nsw i32 %23, 1
  %25 = icmp sle i32 %22, %24
  br i1 %25, label %26, label %52

26:                                               ; preds = %21
  %27 = getelementptr inbounds [26 x i32], [26 x i32]* %3, i64 0, i64 0
  %28 = load i8*, i8** %2, align 8
  %29 = load i32, i32* %4, align 4
  %30 = sext i32 %29 to i64
  %31 = getelementptr inbounds i8, i8* %28, i64 %30
  %32 = load i8, i8* %31, align 1
  %33 = sext i8 %32 to i32
  %34 = sext i32 %33 to i64
  %35 = getelementptr inbounds i32, i32* %27, i64 %34
  %36 = getelementptr inbounds i32, i32* %35, i64 -97
  %37 = load i32, i32* %36, align 4
  %38 = add nsw i32 %37, 1
  %39 = getelementptr inbounds [26 x i32], [26 x i32]* %3, i64 0, i64 0
  %40 = load i8*, i8** %2, align 8
  %41 = load i32, i32* %4, align 4
  %42 = sext i32 %41 to i64
  %43 = getelementptr inbounds i8, i8* %40, i64 %42
  %44 = load i8, i8* %43, align 1
  %45 = sext i8 %44 to i32
  %46 = sext i32 %45 to i64
  %47 = getelementptr inbounds i32, i32* %39, i64 %46
  %48 = getelementptr inbounds i32, i32* %47, i64 -97
  store i32 %38, i32* %48, align 4
  br label %49

49:                                               ; preds = %26
  %50 = load i32, i32* %4, align 4
  %51 = add nsw i32 %50, 1
  store i32 %51, i32* %4, align 4
  br label %21

52:                                               ; preds = %21
  store i32 0, i32* %6, align 4
  store i32 0, i32* %4, align 4
  br label %53

53:                                               ; preds = %80, %52
  %54 = load i32, i32* %4, align 4
  %55 = load i32, i32* %5, align 4
  %56 = sub nsw i32 %55, 1
  %57 = icmp sle i32 %54, %56
  br i1 %57, label %58, label %83

58:                                               ; preds = %53
  %59 = getelementptr inbounds [26 x i32], [26 x i32]* %3, i64 0, i64 0
  %60 = load i8*, i8** %2, align 8
  %61 = load i32, i32* %4, align 4
  %62 = sext i32 %61 to i64
  %63 = getelementptr inbounds i8, i8* %60, i64 %62
  %64 = load i8, i8* %63, align 1
  %65 = sext i8 %64 to i32
  %66 = sext i32 %65 to i64
  %67 = getelementptr inbounds i32, i32* %59, i64 %66
  %68 = getelementptr inbounds i32, i32* %67, i64 -97
  %69 = load i32, i32* %68, align 4
  %70 = icmp eq i32 %69, 1
  br i1 %70, label %71, label %79

71:                                               ; preds = %58
  %72 = load i8*, i8** %2, align 8
  %73 = load i32, i32* %4, align 4
  %74 = sext i32 %73 to i64
  %75 = getelementptr inbounds i8, i8* %72, i64 %74
  %76 = load i8, i8* %75, align 1
  %77 = sext i8 %76 to i32
  %78 = call i32 (i8*, ...) @printf(i8* getelementptr inbounds ([4 x i8], [4 x i8]* @.str, i64 0, i64 0), i32 %77)
  store i32 1, i32* %6, align 4
  br label %83

79:                                               ; preds = %58
  br label %80

80:                                               ; preds = %79
  %81 = load i32, i32* %4, align 4
  %82 = add nsw i32 %81, 1
  store i32 %82, i32* %4, align 4
  br label %53

83:                                               ; preds = %71, %53
  %84 = load i32, i32* %6, align 4
  %85 = icmp eq i32 %84, 0
  br i1 %85, label %86, label %88

86:                                               ; preds = %83
  %87 = call i32 (i8*, ...) @printf(i8* getelementptr inbounds ([4 x i8], [4 x i8]* @.str.1, i64 0, i64 0))
  br label %88

88:                                               ; preds = %86, %83
  ret void
}

; Function Attrs: nounwind readonly
declare dso_local i64 @strlen(i8*) #1

declare dso_local i32 @printf(i8*, ...) #2

; Function Attrs: noinline nounwind uwtable
define dso_local i32 @main() #0 {
  %1 = alloca i32, align 4
  %2 = alloca i32, align 4
  %3 = alloca i32, align 4
  %4 = alloca [100001 x i8], align 16
  store i32 0, i32* %1, align 4
  %5 = call i32 (i8*, ...) @__isoc99_scanf(i8* getelementptr inbounds ([4 x i8], [4 x i8]* @.str.2, i64 0, i64 0), i32* %2)
  store i32 1, i32* %3, align 4
  br label %6

6:                                                ; preds = %14, %0
  %7 = load i32, i32* %3, align 4
  %8 = load i32, i32* %2, align 4
  %9 = icmp sle i32 %7, %8
  br i1 %9, label %10, label %17

10:                                               ; preds = %6
  %11 = getelementptr inbounds [100001 x i8], [100001 x i8]* %4, i64 0, i64 0
  %12 = call i32 (i8*, ...) bitcast (i32 (...)* @gets to i32 (i8*, ...)*)(i8* %11)
  %13 = getelementptr inbounds [100001 x i8], [100001 x i8]* %4, i64 0, i64 0
  call void @fun(i8* %13)
  br label %14

14:                                               ; preds = %10
  %15 = load i32, i32* %3, align 4
  %16 = add nsw i32 %15, 1
  store i32 %16, i32* %3, align 4
  br label %6

17:                                               ; preds = %6
  ret i32 0
}

declare dso_local i32 @__isoc99_scanf(i8*, ...) #2

declare dso_local i32 @gets(...) #2


!llvm.module.flags = !{!0}
!llvm.ident = !{!1}

!0 = !{i32 1, !"wchar_size", i32 4}
!1 = !{!"clang version 10.0.0-4ubuntu1 "}
